target datalayout = "e-m:e-p270:32:32-p271:32:32-p272:64:64-i64:64-i128:128-f80:128-n8:16:32:64-S128"
target triple = "x86_64-pc-linux-gnu"

%struct.rsa_pss_params_30_st = type { i32, %struct.anon, i32, i32 }
%struct.anon = type { i32, i32 }

@default_RSASSA_PSS_params = internal constant %struct.rsa_pss_params_30_st { i32 64, %struct.anon { i32 911, i32 64 }, i32 20, i32 1 }, align 4

; Function Attrs: nounwind uwtable
define i32 @ossl_rsa_pss_params_30_set_defaults(ptr noundef %0) #0 {
  %2 = alloca i32, align 4
  %3 = alloca ptr, align 8
  store ptr %0, ptr %3, align 8, !tbaa !39
  %4 = load ptr, ptr %3, align 8, !tbaa !39
  %5 = icmp eq ptr %4, null
  br i1 %5, label %6, label %7

6:                                                ; preds = %1
  store i32 0, ptr %2, align 4
  br label %9

7:                                                ; preds = %1
  %8 = load ptr, ptr %3, align 8, !tbaa !39
  call void @llvm.memcpy.p0.p0.i64(ptr align 4 %8, ptr align 4 @default_RSASSA_PSS_params, i64 20, i1 false), !tbaa.struct !41
  store i32 1, ptr %2, align 4
  br label %9

9:                                                ; preds = %7, %6
  %10 = load i32, ptr %2, align 4
  ret i32 %10
}