; Function Attrs: mustprogress nofree norecurse nosync nounwind willreturn memory(argmem: readwrite) uwtable
define range(i32 0, 2) i32 @ossl_rsa_pss_params_30_set_defaults(ptr noundef writeonly captures(address_is_null) %0) local_unnamed_addr #3 {
  %2 = icmp eq ptr %0, null
  br i1 %2, label %4, label %3

3:                                                ; preds = %1
  tail call void @llvm.memcpy.p0.p0.i64(ptr noundef nonnull align 4 dereferenceable(20) %0, ptr noundef nonnull align 4 dereferenceable(20) @default_RSASSA_PSS_params, i64 20, i1 false), !tbaa.struct !29
  br label %4

4:                                                ; preds = %1, %3
  %.0 = phi i32 [ 1, %3 ], [ 0, %1 ]
  ret i32 %.0
}